; Function Attrs: mustprogress nounwind uwtable
define hidden void @_ZN6hermes3sem17SemanticValidator5visitEPNS_6ESTree19ReturnStatementNodeE(ptr noundef nonnull align 8 dereferenceable(168) %this, ptr noundef %returnStmt) local_unnamed_addr #0 align 2 {
entry:
  %ref.tmp = alloca %"class.llvh::Twine", align 8
  %funcCtx_.i = getelementptr inbounds nuw i8, ptr %this, i64 152
  %0 = load ptr, ptr %funcCtx_.i, align 8
  %oldContextValue_.i = getelementptr inbounds nuw i8, ptr %0, i64 8
  %1 = load ptr, ptr %oldContextValue_.i, align 8
  %tobool.not.i = icmp eq ptr %1, null
  br i1 %tobool.not.i, label %land.lhs.true, label %if.end

land.lhs.true:                                    ; preds = %entry
  %2 = load ptr, ptr %this, align 8
  %allowReturnOutsideFunction_.i = getelementptr inbounds nuw i8, ptr %2, i64 180
  %3 = load i8, ptr %allowReturnOutsideFunction_.i, align 4
  %tobool.i = trunc i8 %3 to i1
  br i1 %tobool.i, label %if.end, label %if.then

if.then:                                          ; preds = %land.lhs.true
  %sm_ = getelementptr inbounds nuw i8, ptr %this, i64 8
  %4 = load ptr, ptr %sm_, align 8
  %sourceRange_.i = getelementptr inbounds nuw i8, ptr %returnStmt, i64 24
  %retval.sroa.0.0.copyload.i = load ptr, ptr %sourceRange_.i, align 8
  %retval.sroa.2.0.sourceRange_.sroa_idx.i = getelementptr inbounds nuw i8, ptr %returnStmt, i64 32
  %retval.sroa.2.0.copyload.i = load ptr, ptr %retval.sroa.2.0.sourceRange_.sroa_idx.i, align 8
  %LHSKind.i = getelementptr inbounds nuw i8, ptr %ref.tmp, i64 16
  %RHSKind.i = getelementptr inbounds nuw i8, ptr %ref.tmp, i64 17
  store i8 1, ptr %RHSKind.i, align 1
  store ptr @.str.39, ptr %ref.tmp, align 8
  store i8 3, ptr %LHSKind.i, align 8
  call void @_ZN6hermes18SourceErrorManager7messageENS0_8DiagKindEN4llvh7SMRangeERKNS2_5TwineENS_9SubsystemE(ptr noundef nonnull align 8 dereferenceable(464) %4, i32 noundef 0, ptr %retval.sroa.0.0.copyload.i, ptr %retval.sroa.2.0.copyload.i, ptr noundef nonnull align 8 dereferenceable(18) %ref.tmp, i32 noundef 0) #21
  br label %if.end

if.end:                                           ; preds = %if.then, %land.lhs.true, %entry
  %_argument.i = getelementptr inbounds nuw i8, ptr %returnStmt, i64 48
  %5 = load ptr, ptr %_argument.i, align 8
  %call.i = call { ptr, i8 } @_ZN6hermes6ESTree24RecursiveVisitorDispatchINS_3sem17SemanticValidatorELb1EE5visitERS3_PNS0_4NodeES7_(ptr noundef nonnull align 8 dereferenceable(168) %this, ptr noundef %5, ptr noundef %returnStmt)
  ret void
}